; Function Attrs: mustprogress nofree norecurse nosync nounwind willreturn memory(read, inaccessiblemem: none) uwtable
define dso_local noundef nonnull align 4 dereferenceable(16) ptr @_ZNK16b3CpuNarrowPhase16getCollidableCpuEi(ptr nocapture noundef nonnull readonly align 8 dereferenceable(28) %this, i32 noundef %collidableIndex) local_unnamed_addr #1 align 2 {
entry:
  %m_data = getelementptr inbounds i8, ptr %this, i64 8
  %0 = load ptr, ptr %m_data, align 8
  %m_data.i = getelementptr inbounds i8, ptr %0, i64 48
  %1 = load ptr, ptr %m_data.i, align 8
  %idxprom.i = sext i32 %collidableIndex to i64
  %arrayidx.i = getelementptr inbounds %struct.b3Collidable, ptr %1, i64 %idxprom.i
  ret ptr %arrayidx.i
}